; Function Attrs: nounwind uwtable
define internal fastcc void @dissect_fcfcs_gnpl(ptr noundef %0, ptr noundef %1, i32 noundef range(i32 0, 2) %2) unnamed_addr #0 {
  %.not = icmp eq ptr %1, null
  br i1 %.not, label %15, label %4

4:                                                ; preds = %3
  %.not14 = icmp eq i32 %2, 0
  br i1 %.not14, label %8, label %5

5:                                                ; preds = %4
  %6 = load i32, ptr @hf_fcs_platformnname, align 4
  %7 = tail call ptr @proto_tree_add_item(ptr noundef nonnull %1, i32 noundef %6, ptr noundef %0, i32 noundef 16, i32 noundef 8, i32 noundef 0) #4
  br label %15

8:                                                ; preds = %4
  %9 = tail call zeroext i8 @tvb_get_guint8(ptr noundef %0, i32 noundef 16) #4
  %10 = zext i8 %9 to i32
  %11 = load i32, ptr @hf_fcs_platformname_len, align 4
  %12 = tail call ptr @proto_tree_add_uint(ptr noundef nonnull %1, i32 noundef %11, ptr noundef %0, i32 noundef 16, i32 noundef 1, i32 noundef %10) #4
  %13 = load i32, ptr @hf_fcs_platformname, align 4
  %14 = tail call ptr @proto_tree_add_item(ptr noundef nonnull %1, i32 noundef %13, ptr noundef %0, i32 noundef 17, i32 noundef %10, i32 noundef 0) #4
  br label %15

15:                                               ; preds = %5, %8, %3
  ret void
}